target datalayout = "e-m:e-p270:32:32-p271:32:32-p272:64:64-i64:64-i128:128-f80:128-n8:16:32:64-S128"
target triple = "x86_64-pc-linux-gnu"

%struct.hm_fragment_st = type { %struct.hm_header_st, ptr, ptr }
%struct.hm_header_st = type { i8, i64, i16, i64, i64, i32, %struct.dtls1_retransmit_state }
%struct.dtls1_retransmit_state = type { ptr, ptr }
%struct.ssl_connection_st = type { %struct.ssl_st, ptr, i32, ptr, ptr, ptr, i32, ptr, i32, i32, i32, i32, %struct.OSSL_TIME, %struct.OSSL_TIME, %struct.ossl_statem_st, i32, ptr, ptr, i64, i64, i64, %struct.ossl_quic_tls_callbacks_st, ptr, ptr, %struct.anon, ptr, ptr, ptr, i32, ptr, %struct.ssl_dane_st, ptr, ptr, ptr, ptr, i32, [64 x i8], [64 x i8], [64 x i8], [64 x i8], [64 x i8], [64 x i8], [64 x i8], [64 x i8], [64 x i8], [64 x i8], [64 x i8], [64 x i8], ptr, [64 x i8], i64, i32, i64, [32 x i8], ptr, ptr, ptr, i64, ptr, [32 x i8], i64, i32, ptr, ptr, i32, i32, ptr, ptr, ptr, ptr, ptr, i64, ptr, ptr, i64, i32, i32, i32, i64, i32, i32, i64, i64, i64, %struct.anon.1, ptr, i32, ptr, ptr, ptr, i32, ptr, ptr, ptr, i32, i32, i32, i32, ptr, i64, i32, ptr, %struct.srp_ctx_st, ptr, %struct.record_layer_st, ptr, ptr, ptr, ptr, i64, i32, i32, i32, i64, i64, i64, ptr, ptr, ptr, ptr, ptr, i64, ptr, i64, ptr, i64 }
%struct.ssl_st = type { i32, ptr, ptr, ptr, %struct.CRYPTO_REF_COUNT, ptr, %struct.crypto_ex_data_st }
%struct.CRYPTO_REF_COUNT = type { i32 }
%struct.crypto_ex_data_st = type { ptr, ptr }
%struct.OSSL_TIME = type { i64 }
%struct.ossl_statem_st = type { i32, i32, i32, i32, i32, i32, i32, i32, i32, i32, i32, i32, i32, ptr, ptr, ptr, i8 }
%struct.ossl_quic_tls_callbacks_st = type { ptr, ptr, ptr, ptr, ptr, ptr }
%struct.anon = type { i64, [32 x i8], [32 x i8], ptr, ptr, i32, i32, i32, i32, [2 x i8], i32, i32, i32, i32, %struct.anon.0, [64 x i8], i64, [64 x i8], i64, i32, i32, ptr, i64, ptr, i64, i32, i8, i8, i16, ptr, i16 }
%struct.anon.0 = type { [128 x i8], i64, [128 x i8], i64, i64, i32, ptr, ptr, [4 x ptr], [4 x i16], i64, i32, ptr, i64, ptr, i64, ptr, ptr, ptr, i32, i64, ptr, i32, ptr, i64, ptr, i64, ptr, i64, ptr, ptr, ptr, ptr, i64, i64, ptr, ptr, i32, i32, i32, i32 }
%struct.ssl_dane_st = type { ptr, ptr, ptr, ptr, ptr, i32, i32, i32, i64 }
%struct.anon.1 = type { [29 x i8], ptr, ptr, ptr, i32, ptr, i16, i32, %struct.anon.2, i32, i32, i64, ptr, i64, ptr, i64, ptr, i64, ptr, i64, ptr, i64, ptr, ptr, ptr, ptr, ptr, ptr, ptr, i64, ptr, i64, i32, i32, i32, i32, ptr, i64, i32, i8, i32, [4 x i32], i32, i8, i8, i8, i8 }
%struct.anon.2 = type { ptr, ptr, ptr, i64 }
%struct.srp_ctx_st = type { ptr, ptr, ptr, ptr, ptr, ptr, ptr, ptr, ptr, ptr, ptr, ptr, ptr, ptr, i32, i64 }
%struct.record_layer_st = type { ptr, ptr, ptr, ptr, ptr, ptr, ptr, ptr, i64, i32, i64, [4 x i8], i64, i64, i8, ptr, i32, ptr, ptr, ptr, i64, i64, i64, i64, [32 x %struct.tls_record_st] }
%struct.tls_record_st = type { ptr, i32, i8, ptr, ptr, i64, i64, i16, [8 x i8] }
%struct.dtls1_state_st = type { [255 x i8], i64, i32, i16, i16, i16, ptr, ptr, i64, i64, %struct.hm_header_st, %struct.hm_header_st, i32, %struct.OSSL_TIME, i32, i32, ptr }
%struct.pitem_st = type { [8 x i8], ptr, ptr }

; Function Attrs: nounwind uwtable
define i32 @dtls1_get_queue_priority(i16 noundef zeroext %0, i32 noundef %1) #0 {
  %3 = alloca i16, align 2
  %4 = alloca i32, align 4
  store i16 %0, ptr %3, align 2, !tbaa !132
  store i32 %1, ptr %4, align 4, !tbaa !22
  %5 = load i16, ptr %3, align 2, !tbaa !132
  %6 = zext i16 %5 to i32
  %7 = mul nsw i32 %6, 2
  %8 = load i32, ptr %4, align 4, !tbaa !22
  %9 = sub nsw i32 %7, %8
  ret i32 %9
}

; Function Attrs: nounwind uwtable
define i32 @dtls1_retransmit_buffered_messages(ptr noundef %0) #0 {
  %2 = alloca i32, align 4
  %3 = alloca ptr, align 8
  %4 = alloca ptr, align 8
  %5 = alloca ptr, align 8
  %6 = alloca ptr, align 8
  %7 = alloca ptr, align 8
  %8 = alloca i32, align 4
  %9 = alloca i32, align 4
  store ptr %0, ptr %3, align 8, !tbaa !19
  call void @llvm.lifetime.start.p0(i64 8, ptr %4) #6
  %10 = load ptr, ptr %3, align 8, !tbaa !19
  %11 = getelementptr inbounds nuw %struct.ssl_connection_st, ptr %10, i32 0, i32 25
  %12 = load ptr, ptr %11, align 8, !tbaa !80
  %13 = getelementptr inbounds nuw %struct.dtls1_state_st, ptr %12, i32 0, i32 7
  %14 = load ptr, ptr %13, align 8, !tbaa !133
  store ptr %14, ptr %4, align 8, !tbaa !134
  call void @llvm.lifetime.start.p0(i64 8, ptr %5) #6
  call void @llvm.lifetime.start.p0(i64 8, ptr %6) #6
  call void @llvm.lifetime.start.p0(i64 8, ptr %7) #6
  call void @llvm.lifetime.start.p0(i64 4, ptr %8) #6
  store i32 0, ptr %8, align 4, !tbaa !22
  %15 = load ptr, ptr %4, align 8, !tbaa !134
  %16 = call ptr @pqueue_iterator(ptr noundef %15)
  store ptr %16, ptr %5, align 8, !tbaa !135
  %17 = call ptr @pqueue_next(ptr noundef %5)
  store ptr %17, ptr %6, align 8, !tbaa !135
  br label %18

18:                                               ; preds = %40, %1
  %19 = load ptr, ptr %6, align 8, !tbaa !135
  %20 = icmp ne ptr %19, null
  br i1 %20, label %21, label %42

21:                                               ; preds = %18
  %22 = load ptr, ptr %6, align 8, !tbaa !135
  %23 = getelementptr inbounds nuw %struct.pitem_st, ptr %22, i32 0, i32 1
  %24 = load ptr, ptr %23, align 8, !tbaa !137
  store ptr %24, ptr %7, align 8, !tbaa !3
  %25 = load ptr, ptr %3, align 8, !tbaa !19
  %26 = load ptr, ptr %7, align 8, !tbaa !3
  %27 = getelementptr inbounds nuw %struct.hm_fragment_st, ptr %26, i32 0, i32 0
  %28 = getelementptr inbounds nuw %struct.hm_header_st, ptr %27, i32 0, i32 2
  %29 = load i16, ptr %28, align 8, !tbaa !139
  %30 = load ptr, ptr %7, align 8, !tbaa !3
  %31 = getelementptr inbounds nuw %struct.hm_fragment_st, ptr %30, i32 0, i32 0
  %32 = getelementptr inbounds nuw %struct.hm_header_st, ptr %31, i32 0, i32 5
  %33 = load i32, ptr %32, align 8, !tbaa !140
  %34 = call i32 @dtls1_get_queue_priority(i16 noundef zeroext %29, i32 noundef %33)
  %35 = trunc i32 %34 to i16
  %36 = call i32 @dtls1_retransmit_message(ptr noundef %25, i16 noundef zeroext %35, ptr noundef %8)
  %37 = icmp sle i32 %36, 0
  br i1 %37, label %38, label %39

38:                                               ; preds = %21
  store i32 -1, ptr %2, align 4
  store i32 1, ptr %9, align 4
  br label %43

39:                                               ; preds = %21
  br label %40

40:                                               ; preds = %39
  %41 = call ptr @pqueue_next(ptr noundef %5)
  store ptr %41, ptr %6, align 8, !tbaa !135
  br label %18, !llvm.loop !141

42:                                               ; preds = %18
  store i32 1, ptr %2, align 4
  store i32 1, ptr %9, align 4
  br label %43

43:                                               ; preds = %42, %38
  call void @llvm.lifetime.end.p0(i64 4, ptr %8) #6
  call void @llvm.lifetime.end.p0(i64 8, ptr %7) #6
  call void @llvm.lifetime.end.p0(i64 8, ptr %6) #6
  call void @llvm.lifetime.end.p0(i64 8, ptr %5) #6
  call void @llvm.lifetime.end.p0(i64 8, ptr %4) #6
  %44 = load i32, ptr %2, align 4
  ret i32 %44
}