; Function Attrs: nounwind uwtable
define range(i32 -1, 2) i32 @dtls1_retransmit_buffered_messages(ptr noundef %0) local_unnamed_addr #0 {
  %2 = alloca ptr, align 8
  %3 = alloca i32, align 4
  %4 = getelementptr inbounds nuw i8, ptr %0, i64 1264
  %5 = load ptr, ptr %4, align 8, !tbaa !74
  %6 = getelementptr inbounds nuw i8, ptr %5, i64 288
  %7 = load ptr, ptr %6, align 8, !tbaa !134
  call void @llvm.lifetime.start.p0(i64 8, ptr nonnull %2) #9
  call void @llvm.lifetime.start.p0(i64 4, ptr nonnull %3) #9
  %8 = tail call ptr @pqueue_iterator(ptr noundef %7) #9
  store ptr %8, ptr %2, align 8, !tbaa !106
  %9 = call ptr @pqueue_next(ptr noundef nonnull %2) #9
  %.not8 = icmp eq ptr %9, null
  br i1 %.not8, label %._crit_edge, label %.lr.ph

.lr.ph:                                           ; preds = %1, %22
  %.079 = phi ptr [ %23, %22 ], [ %9, %1 ]
  %10 = getelementptr inbounds nuw i8, ptr %.079, i64 8
  %11 = load ptr, ptr %10, align 8, !tbaa !108
  %12 = getelementptr inbounds nuw i8, ptr %11, i64 16
  %13 = load i16, ptr %12, align 8, !tbaa !110
  %14 = getelementptr inbounds nuw i8, ptr %11, i64 40
  %15 = load i32, ptr %14, align 8, !tbaa !135
  %16 = zext i16 %13 to i32
  %17 = shl nuw nsw i32 %16, 1
  %18 = sub nsw i32 %17, %15
  %19 = trunc i32 %18 to i16
  %20 = call i32 @dtls1_retransmit_message(ptr noundef %0, i16 noundef zeroext %19, ptr noundef nonnull %3)
  %21 = icmp slt i32 %20, 1
  br i1 %21, label %._crit_edge, label %22

22:                                               ; preds = %.lr.ph
  %23 = call ptr @pqueue_next(ptr noundef nonnull %2) #9
  %.not = icmp eq ptr %23, null
  br i1 %.not, label %._crit_edge, label %.lr.ph, !llvm.loop !136

._crit_edge:                                      ; preds = %.lr.ph, %22, %1
  %.0 = phi i32 [ 1, %1 ], [ 1, %22 ], [ -1, %.lr.ph ]
  call void @llvm.lifetime.end.p0(i64 4, ptr nonnull %3) #9
  call void @llvm.lifetime.end.p0(i64 8, ptr nonnull %2) #9
  ret i32 %.0
}